target datalayout = "e-m:e-p270:32:32-p271:32:32-p272:64:64-i64:64-i128:128-f80:128-n8:16:32:64-S128"
target triple = "x86_64-pc-linux-gnu"

%"class.cv::utils::trace::details::Region" = type <{ ptr, i32, [4 x i8] }>

; Function Attrs: mustprogress uwtable
define void @_ZN2cv9Feature2D7computeERKNS_11_InputArrayERSt6vectorINS_8KeyPointESaIS5_EERKNS_12_OutputArrayE(ptr noundef nonnull align 8 dereferenceable(8) %0, ptr noundef nonnull align 8 dereferenceable(24) %1, ptr noundef nonnull align 8 dereferenceable(24) %2, ptr noundef nonnull align 8 dereferenceable(24) %3) unnamed_addr #4 align 2 personality ptr @__gxx_personality_v0 {
  %5 = alloca ptr, align 8
  %6 = alloca ptr, align 8
  %7 = alloca ptr, align 8
  %8 = alloca ptr, align 8
  %9 = alloca %"class.cv::utils::trace::details::Region", align 8
  %10 = alloca ptr, align 8
  %11 = alloca i32, align 4
  %12 = alloca i32, align 4
  store ptr %0, ptr %5, align 8, !tbaa !3
  store ptr %1, ptr %6, align 8, !tbaa !12
  store ptr %2, ptr %7, align 8, !tbaa !14
  store ptr %3, ptr %8, align 8, !tbaa !50
  %13 = load ptr, ptr %5, align 8
  call void @llvm.lifetime.start.p0(i64 16, ptr %9) #17
  call void @_ZN2cv5utils5trace7details6RegionC1ERKNS3_21LocationStaticStorageE(ptr noundef nonnull align 8 dereferenceable(12) %9, ptr noundef nonnull align 8 dereferenceable(32) @_ZZN2cv9Feature2D7computeERKNS_11_InputArrayERSt6vectorINS_8KeyPointESaIS5_EERKNS_12_OutputArrayEE25__cv_trace_location_fn118)
  %14 = load ptr, ptr %6, align 8, !tbaa !12
  %15 = invoke noundef zeroext i1 @_ZNK2cv11_InputArray5emptyEv(ptr noundef nonnull align 8 dereferenceable(24) %14)
          to label %16 unwind label %20

16:                                               ; preds = %4
  br i1 %15, label %17, label %24

17:                                               ; preds = %16
  %18 = load ptr, ptr %8, align 8, !tbaa !50
  invoke void @_ZNK2cv12_OutputArray7releaseEv(ptr noundef nonnull align 8 dereferenceable(24) %18)
          to label %19 unwind label %20

19:                                               ; preds = %17
  store i32 1, ptr %12, align 4
  br label %34

20:                                               ; preds = %27, %24, %17, %4
  %21 = landingpad { ptr, i32 }
          cleanup
  %22 = extractvalue { ptr, i32 } %21, 0
  store ptr %22, ptr %10, align 8
  %23 = extractvalue { ptr, i32 } %21, 1
  store i32 %23, ptr %11, align 4
  call void @_ZN2cv5utils5trace7details6RegionD2Ev(ptr noundef nonnull align 8 dereferenceable(12) %9) #17
  call void @llvm.lifetime.end.p0(i64 16, ptr %9) #17
  br label %37

24:                                               ; preds = %16
  %25 = load ptr, ptr %6, align 8, !tbaa !12
  %26 = invoke noundef nonnull align 8 dereferenceable(24) ptr @_ZN2cv7noArrayEv()
          to label %27 unwind label %20

27:                                               ; preds = %24
  %28 = load ptr, ptr %7, align 8, !tbaa !14
  %29 = load ptr, ptr %8, align 8, !tbaa !50
  %30 = load ptr, ptr %13, align 8, !tbaa !10
  %31 = getelementptr inbounds ptr, ptr %30, i64 12
  %32 = load ptr, ptr %31, align 8
  invoke void %32(ptr noundef nonnull align 8 dereferenceable(8) %13, ptr noundef nonnull align 8 dereferenceable(24) %25, ptr noundef nonnull align 8 dereferenceable(24) %26, ptr noundef nonnull align 8 dereferenceable(24) %28, ptr noundef nonnull align 8 dereferenceable(24) %29, i1 noundef zeroext true)
          to label %33 unwind label %20

33:                                               ; preds = %27
  store i32 0, ptr %12, align 4
  br label %34

34:                                               ; preds = %33, %19
  call void @_ZN2cv5utils5trace7details6RegionD2Ev(ptr noundef nonnull align 8 dereferenceable(12) %9) #17
  call void @llvm.lifetime.end.p0(i64 16, ptr %9) #17
  %35 = load i32, ptr %12, align 4
  switch i32 %35, label %42 [
    i32 0, label %36
    i32 1, label %36
  ]

36:                                               ; preds = %34, %34
  ret void

37:                                               ; preds = %20
  %38 = load ptr, ptr %10, align 8
  %39 = load i32, ptr %11, align 4
  %40 = insertvalue { ptr, i32 } poison, ptr %38, 0
  %41 = insertvalue { ptr, i32 } %40, i32 %39, 1
  resume { ptr, i32 } %41

42:                                               ; preds = %34
  unreachable
}