; Function Attrs: mustprogress uwtable
define void @_ZN2cv9Feature2D7computeERKNS_11_InputArrayERSt6vectorINS_8KeyPointESaIS5_EERKNS_12_OutputArrayE(ptr noundef nonnull align 8 dereferenceable(8) %0, ptr noundef nonnull align 8 dereferenceable(24) %1, ptr noundef nonnull align 8 dereferenceable(24) %2, ptr noundef nonnull align 8 dereferenceable(24) %3) unnamed_addr #5 align 2 personality ptr @__gxx_personality_v0 {
  %5 = alloca %"class.cv::utils::trace::details::Region", align 8
  call void @llvm.lifetime.start.p0(i64 16, ptr nonnull %5) #20
  call void @_ZN2cv5utils5trace7details6RegionC1ERKNS3_21LocationStaticStorageE(ptr noundef nonnull align 8 dereferenceable(12) %5, ptr noundef nonnull align 8 dereferenceable(32) @_ZZN2cv9Feature2D7computeERKNS_11_InputArrayERSt6vectorINS_8KeyPointESaIS5_EERKNS_12_OutputArrayEE25__cv_trace_location_fn118)
  %6 = invoke noundef zeroext i1 @_ZNK2cv11_InputArray5emptyEv(ptr noundef nonnull align 8 dereferenceable(24) %1)
          to label %7 unwind label %9

7:                                                ; preds = %4
  br i1 %6, label %8, label %11

8:                                                ; preds = %7
  invoke void @_ZNK2cv12_OutputArray7releaseEv(ptr noundef nonnull align 8 dereferenceable(24) %3)
          to label %17 unwind label %9

9:                                                ; preds = %13, %11, %8, %4
  %10 = landingpad { ptr, i32 }
          cleanup
  call void @_ZN2cv5utils5trace7details6RegionD2Ev(ptr noundef nonnull align 8 dereferenceable(12) %5) #20
  call void @llvm.lifetime.end.p0(i64 16, ptr nonnull %5) #20
  resume { ptr, i32 } %10

11:                                               ; preds = %7
  %12 = invoke noundef nonnull align 8 dereferenceable(24) ptr @_ZN2cv7noArrayEv()
          to label %13 unwind label %9

13:                                               ; preds = %11
  %14 = load ptr, ptr %0, align 8, !tbaa !3
  %15 = getelementptr inbounds nuw i8, ptr %14, i64 96
  %16 = load ptr, ptr %15, align 8
  invoke void %16(ptr noundef nonnull align 8 dereferenceable(8) %0, ptr noundef nonnull align 8 dereferenceable(24) %1, ptr noundef nonnull align 8 dereferenceable(24) %12, ptr noundef nonnull align 8 dereferenceable(24) %2, ptr noundef nonnull align 8 dereferenceable(24) %3, i1 noundef zeroext true)
          to label %17 unwind label %9

17:                                               ; preds = %13, %8
  %18 = getelementptr inbounds nuw i8, ptr %5, i64 8
  %19 = load i32, ptr %18, align 8, !tbaa !12
  %.not.i = icmp eq i32 %19, 0
  br i1 %.not.i, label %_ZN2cv5utils5trace7details6RegionD2Ev.exit, label %20

20:                                               ; preds = %17
  invoke void @_ZN2cv5utils5trace7details6Region7destroyEv(ptr noundef nonnull align 8 dereferenceable(12) %5)
          to label %_ZN2cv5utils5trace7details6RegionD2Ev.exit unwind label %21

21:                                               ; preds = %20
  %22 = landingpad { ptr, i32 }
          catch ptr null
  %23 = extractvalue { ptr, i32 } %22, 0
  call void @__clang_call_terminate(ptr %23) #22
  unreachable

_ZN2cv5utils5trace7details6RegionD2Ev.exit:       ; preds = %17, %20
  call void @llvm.lifetime.end.p0(i64 16, ptr nonnull %5) #20
  ret void
}